target datalayout = "e-m:e-p270:32:32-p271:32:32-p272:64:64-i64:64-i128:128-f80:128-n8:16:32:64-S128"
target triple = "x86_64-pc-linux-gnu"

%struct._HF_OF_INTEREST_INFO = type { i32, ptr }
%struct._PKT_INFO = type { i32, %struct.nstime_t, i8, i8, i8, i8, i8, i32, i32, i16, i16, i16, i8, i8, i16, i16, i64, i64, i16, i8, i8, i32, i16, i16, i8, %struct._RRPD }
%struct.nstime_t = type { i64, i32 }
%struct._RRPD = type { i8, i8, i32, i64, i64, i8, i8, i32, %struct.nstime_t, i32, %struct.nstime_t, i32, %struct.nstime_t, i32, %struct.nstime_t, i32, i32, i32 }

@hf_of_interest = external global [29 x %struct._HF_OF_INTEREST_INFO], align 16

; Function Attrs: null_pointer_is_valid sspstrong uwtable
define hidden i32 @decode_dns(ptr noundef %0, ptr noundef %1, ptr noundef %2) #0 {
  %4 = alloca ptr, align 8
  %5 = alloca ptr, align 8
  %6 = alloca ptr, align 8
  %7 = alloca [16 x i32], align 16
  %8 = alloca i64, align 8
  store ptr %0, ptr %4, align 8
  store ptr %1, ptr %5, align 8
  store ptr %2, ptr %6, align 8
  call void @llvm.lifetime.start.p0(i64 64, ptr %7) #3
  call void @llvm.lifetime.start.p0(i64 8, ptr %8) #3
  %9 = load ptr, ptr %5, align 8
  %10 = load i32, ptr getelementptr ([29 x %struct._HF_OF_INTEREST_INFO], ptr @hf_of_interest, i64 0, i64 28), align 16
  %11 = getelementptr inbounds [16 x i32], ptr %7, i64 0, i64 0
  %12 = call i32 @extract_uint(ptr noundef %9, i32 noundef %10, ptr noundef %11, ptr noundef %8)
  %13 = icmp ne i32 %12, 0
  br i1 %13, label %25, label %14

14:                                               ; preds = %3
  %15 = load i64, ptr %8, align 8
  %16 = icmp ne i64 %15, 0
  br i1 %16, label %17, label %24

17:                                               ; preds = %14
  %18 = getelementptr [16 x i32], ptr %7, i64 0, i64 0
  %19 = load i32, ptr %18, align 16
  %20 = zext i32 %19 to i64
  %21 = load ptr, ptr %6, align 8
  %22 = getelementptr inbounds nuw %struct._PKT_INFO, ptr %21, i32 0, i32 25
  %23 = getelementptr inbounds nuw %struct._RRPD, ptr %22, i32 0, i32 4
  store i64 %20, ptr %23, align 8
  br label %24

24:                                               ; preds = %17, %14
  br label %25

25:                                               ; preds = %24, %3
  %26 = load ptr, ptr %6, align 8
  %27 = getelementptr inbounds nuw %struct._PKT_INFO, ptr %26, i32 0, i32 25
  %28 = getelementptr inbounds nuw %struct._RRPD, ptr %27, i32 0, i32 3
  store i64 1, ptr %28, align 8
  %29 = load ptr, ptr %6, align 8
  %30 = getelementptr inbounds nuw %struct._PKT_INFO, ptr %29, i32 0, i32 25
  %31 = getelementptr inbounds nuw %struct._RRPD, ptr %30, i32 0, i32 5
  store i8 1, ptr %31, align 8
  %32 = load ptr, ptr %6, align 8
  %33 = getelementptr inbounds nuw %struct._PKT_INFO, ptr %32, i32 0, i32 25
  %34 = getelementptr inbounds nuw %struct._RRPD, ptr %33, i32 0, i32 15
  store i32 7, ptr %34, align 8
  %35 = load ptr, ptr %6, align 8
  %36 = getelementptr inbounds nuw %struct._PKT_INFO, ptr %35, i32 0, i32 24
  store i8 1, ptr %36, align 4
  call void @llvm.lifetime.end.p0(i64 8, ptr %8) #3
  call void @llvm.lifetime.end.p0(i64 64, ptr %7) #3
  ret i32 1
}