; Function Attrs: null_pointer_is_valid sspstrong uwtable
define hidden noundef i32 @decode_dns(ptr noundef readnone captures(none) %0, ptr noundef %1, ptr noundef writeonly captures(none) initializes((84, 85), (96, 104), (112, 113), (208, 212)) %2) local_unnamed_addr #0 {
  %4 = alloca [16 x i32], align 16
  %5 = alloca i64, align 8
  call void @llvm.lifetime.start.p0(i64 64, ptr nonnull %4) #5
  call void @llvm.lifetime.start.p0(i64 8, ptr nonnull %5) #5
  %6 = load i32, ptr getelementptr inbounds nuw (i8, ptr @hf_of_interest, i64 448), align 16
  %7 = call i32 @extract_uint(ptr noundef %1, i32 noundef %6, ptr noundef nonnull %4, ptr noundef nonnull %5)
  %8 = icmp eq i32 %7, 0
  %9 = load i64, ptr %5, align 8
  %10 = icmp ne i64 %9, 0
  %or.cond = select i1 %8, i1 %10, i1 false
  br i1 %or.cond, label %11, label %15

11:                                               ; preds = %3
  %12 = load i32, ptr %4, align 16
  %13 = zext i32 %12 to i64
  %14 = getelementptr inbounds nuw i8, ptr %2, i64 104
  store i64 %13, ptr %14, align 8
  br label %15

15:                                               ; preds = %11, %3
  %16 = getelementptr inbounds nuw i8, ptr %2, i64 96
  store i64 1, ptr %16, align 8
  %17 = getelementptr inbounds nuw i8, ptr %2, i64 112
  store i8 1, ptr %17, align 8
  %18 = getelementptr inbounds nuw i8, ptr %2, i64 208
  store i32 7, ptr %18, align 8
  %19 = getelementptr inbounds nuw i8, ptr %2, i64 84
  store i8 1, ptr %19, align 4
  call void @llvm.lifetime.end.p0(i64 8, ptr nonnull %5) #5
  call void @llvm.lifetime.end.p0(i64 64, ptr nonnull %4) #5
  ret i32 1
}